target datalayout = "e-m:e-p270:32:32-p271:32:32-p272:64:64-i64:64-i128:128-f80:128-n8:16:32:64-S128"
target triple = "x86_64-pc-linux-gnu"

%"class.icu_77::MaybeStackArray" = type <{ ptr, i32, i8, [40 x i8], [3 x i8] }>
%"class.icu_77::CharString" = type { %"class.icu_77::MaybeStackArray", i32, [4 x i8] }

@.str.12 = private unnamed_addr constant [17 x i8] c"supplementalData\00", align 1
@.str.17 = private unnamed_addr constant [16 x i8] c"measurementData\00", align 1
@.str.18 = private unnamed_addr constant [4 x i8] c"001\00", align 1
@_ZN6icu_7715MaybeStackArrayIcLi40EED1Ev = weak_odr unnamed_addr alias void (ptr), ptr @_ZN6icu_7715MaybeStackArrayIcLi40EED2Ev

; Function Attrs: mustprogress nounwind uwtable
define weak_odr noundef ptr @_ZNK6icu_7715MaybeStackArrayIcLi40EE8getAliasEv(ptr noundef nonnull align 8 dereferenceable(53) %0) #0 comdat align 2 {
  %2 = alloca ptr, align 8
  store ptr %0, ptr %2, align 8, !tbaa !3
  %3 = load ptr, ptr %2, align 8
  %4 = getelementptr inbounds nuw %"class.icu_77::MaybeStackArray", ptr %3, i32 0, i32 0
  %5 = load ptr, ptr %4, align 8, !tbaa !8
  ret ptr %5
}

; Function Attrs: mustprogress nounwind uwtable
define linkonce_odr void @_ZN6icu_7710CharStringD2Ev(ptr noundef nonnull align 8 dereferenceable(60) %0) unnamed_addr #0 comdat align 2 {
  %2 = alloca ptr, align 8
  store ptr %0, ptr %2, align 8, !tbaa !44
  %3 = load ptr, ptr %2, align 8
  %4 = getelementptr inbounds nuw %"class.icu_77::CharString", ptr %3, i32 0, i32 0
  call void @_ZN6icu_7715MaybeStackArrayIcLi40EED1Ev(ptr noundef nonnull align 8 dereferenceable(53) %4) #9
  ret void
}

; Function Attrs: inlinehint mustprogress nounwind uwtable
define internal noundef signext i8 @_ZL9U_SUCCESS10UErrorCode(i32 noundef %0) #2 {
  %2 = alloca i32, align 4
  store i32 %0, ptr %2, align 4, !tbaa !15
  %3 = load i32, ptr %2, align 4, !tbaa !15
  %4 = icmp sle i32 %3, 0
  %5 = zext i1 %4 to i8
  ret i8 %5
}

; Function Attrs: mustprogress nounwind uwtable
define linkonce_odr noundef ptr @_ZN6icu_7710CharString4dataEv(ptr noundef nonnull align 8 dereferenceable(60) %0) #0 comdat align 2 {
  %2 = alloca ptr, align 8
  store ptr %0, ptr %2, align 8, !tbaa !44
  %3 = load ptr, ptr %2, align 8
  %4 = getelementptr inbounds nuw %"class.icu_77::CharString", ptr %3, i32 0, i32 0
  %5 = call noundef ptr @_ZNK6icu_7715MaybeStackArrayIcLi40EE8getAliasEv(ptr noundef nonnull align 8 dereferenceable(53) %4)
  ret ptr %5
}

; Function Attrs: inlinehint mustprogress nounwind uwtable
define internal noundef signext i8 @_ZL9U_FAILURE10UErrorCode(i32 noundef %0) #2 {
  %2 = alloca i32, align 4
  store i32 %0, ptr %2, align 4, !tbaa !15
  %3 = load i32, ptr %2, align 4, !tbaa !15
  %4 = icmp sgt i32 %3, 0
  %5 = zext i1 %4 to i8
  ret i8 %5
}

; Function Attrs: mustprogress uwtable
define internal noundef ptr @_ZN12_GLOBAL__N_130measurementTypeBundleForLocaleEPKcS1_P10UErrorCode(ptr noundef %0, ptr noundef %1, ptr noundef %2) #1 personality ptr @__gxx_personality_v0 {
  %4 = alloca ptr, align 8
  %5 = alloca ptr, align 8
  %6 = alloca ptr, align 8
  %7 = alloca ptr, align 8
  %8 = alloca ptr, align 8
  %9 = alloca ptr, align 8
  %10 = alloca %"class.icu_77::CharString", align 8
  %11 = alloca ptr, align 8
  %12 = alloca i32, align 4
  %13 = alloca ptr, align 8
  store ptr %0, ptr %5, align 8, !tbaa !17
  store ptr %1, ptr %6, align 8, !tbaa !17
  store ptr %2, ptr %7, align 8, !tbaa !22
  %14 = load ptr, ptr %7, align 8, !tbaa !22
  %15 = load i32, ptr %14, align 4, !tbaa !15
  %16 = call noundef signext i8 @_ZL9U_FAILURE10UErrorCode(i32 noundef %15)
  %17 = icmp ne i8 %16, 0
  br i1 %17, label %18, label %19

18:                                               ; preds = %3
  store ptr null, ptr %4, align 8
  br label %87

19:                                               ; preds = %3
  call void @llvm.lifetime.start.p0(i64 8, ptr %8) #9
  call void @llvm.lifetime.start.p0(i64 8, ptr %9) #9
  store ptr null, ptr %9, align 8, !tbaa !39
  call void @llvm.lifetime.start.p0(i64 64, ptr %10) #9
  %20 = load ptr, ptr %5, align 8, !tbaa !17
  %21 = load ptr, ptr %7, align 8, !tbaa !22
  call void @_Z39ulocimp_getRegionForSupplementalData_77PKcbR10UErrorCode(ptr dead_on_unwind writable sret(%"class.icu_77::CharString") align 8 %10, ptr noundef %20, i1 noundef zeroext true, ptr noundef nonnull align 4 dereferenceable(4) %21)
  %22 = load ptr, ptr %7, align 8, !tbaa !22
  %23 = invoke ptr @ures_openDirect_77(ptr noundef null, ptr noundef @.str.12, ptr noundef %22)
          to label %24 unwind label %50

24:                                               ; preds = %19
  store ptr %23, ptr %8, align 8, !tbaa !39
  %25 = load ptr, ptr %8, align 8, !tbaa !39
  %26 = load ptr, ptr %8, align 8, !tbaa !39
  %27 = load ptr, ptr %7, align 8, !tbaa !22
  %28 = invoke ptr @ures_getByKey_77(ptr noundef %25, ptr noundef @.str.17, ptr noundef %26, ptr noundef %27)
          to label %29 unwind label %50

29:                                               ; preds = %24
  %30 = load ptr, ptr %8, align 8, !tbaa !39
  %31 = icmp ne ptr %30, null
  br i1 %31, label %32, label %82

32:                                               ; preds = %29
  call void @llvm.lifetime.start.p0(i64 8, ptr %13) #9
  %33 = load ptr, ptr %8, align 8, !tbaa !39
  %34 = invoke noundef ptr @_ZN6icu_7710CharString4dataEv(ptr noundef nonnull align 8 dereferenceable(60) %10)
          to label %35 unwind label %54

35:                                               ; preds = %32
  %36 = load ptr, ptr %7, align 8, !tbaa !22
  %37 = invoke ptr @ures_getByKey_77(ptr noundef %33, ptr noundef %34, ptr noundef null, ptr noundef %36)
          to label %38 unwind label %54

38:                                               ; preds = %35
  store ptr %37, ptr %13, align 8, !tbaa !39
  %39 = load ptr, ptr %7, align 8, !tbaa !22
  %40 = load i32, ptr %39, align 4, !tbaa !15
  %41 = invoke noundef signext i8 @_ZL9U_SUCCESS10UErrorCode(i32 noundef %40)
          to label %42 unwind label %54

42:                                               ; preds = %38
  %43 = icmp ne i8 %41, 0
  br i1 %43, label %44, label %58

44:                                               ; preds = %42
  %45 = load ptr, ptr %13, align 8, !tbaa !39
  %46 = load ptr, ptr %6, align 8, !tbaa !17
  %47 = load ptr, ptr %7, align 8, !tbaa !22
  %48 = invoke ptr @ures_getByKey_77(ptr noundef %45, ptr noundef %46, ptr noundef null, ptr noundef %47)
          to label %49 unwind label %54

49:                                               ; preds = %44
  store ptr %48, ptr %9, align 8, !tbaa !39
  br label %58

50:                                               ; preds = %82, %24, %19
  %51 = landingpad { ptr, i32 }
          cleanup
  %52 = extractvalue { ptr, i32 } %51, 0
  store ptr %52, ptr %11, align 8
  %53 = extractvalue { ptr, i32 } %51, 1
  store i32 %53, ptr %12, align 4
  br label %86

54:                                               ; preds = %79, %73, %69, %66, %44, %38, %35, %32
  %55 = landingpad { ptr, i32 }
          cleanup
  %56 = extractvalue { ptr, i32 } %55, 0
  store ptr %56, ptr %11, align 8
  %57 = extractvalue { ptr, i32 } %55, 1
  store i32 %57, ptr %12, align 4
  call void @llvm.lifetime.end.p0(i64 8, ptr %13) #9
  br label %86

58:                                               ; preds = %49, %42
  %59 = load ptr, ptr %7, align 8, !tbaa !22
  %60 = load i32, ptr %59, align 4, !tbaa !15
  %61 = icmp eq i32 %60, 2
  br i1 %61, label %62, label %79

62:                                               ; preds = %58
  %63 = load ptr, ptr %7, align 8, !tbaa !22
  store i32 0, ptr %63, align 4, !tbaa !15
  %64 = load ptr, ptr %13, align 8, !tbaa !39
  %65 = icmp ne ptr %64, null
  br i1 %65, label %66, label %69

66:                                               ; preds = %62
  %67 = load ptr, ptr %13, align 8, !tbaa !39
  invoke void @ures_close_77(ptr noundef %67)
          to label %68 unwind label %54

68:                                               ; preds = %66
  br label %69

69:                                               ; preds = %68, %62
  %70 = load ptr, ptr %8, align 8, !tbaa !39
  %71 = load ptr, ptr %7, align 8, !tbaa !22
  %72 = invoke ptr @ures_getByKey_77(ptr noundef %70, ptr noundef @.str.18, ptr noundef null, ptr noundef %71)
          to label %73 unwind label %54

73:                                               ; preds = %69
  store ptr %72, ptr %13, align 8, !tbaa !39
  %74 = load ptr, ptr %13, align 8, !tbaa !39
  %75 = load ptr, ptr %6, align 8, !tbaa !17
  %76 = load ptr, ptr %7, align 8, !tbaa !22
  %77 = invoke ptr @ures_getByKey_77(ptr noundef %74, ptr noundef %75, ptr noundef null, ptr noundef %76)
          to label %78 unwind label %54

78:                                               ; preds = %73
  store ptr %77, ptr %9, align 8, !tbaa !39
  br label %79

79:                                               ; preds = %78, %58
  %80 = load ptr, ptr %13, align 8, !tbaa !39
  invoke void @ures_close_77(ptr noundef %80)
          to label %81 unwind label %54

81:                                               ; preds = %79
  call void @llvm.lifetime.end.p0(i64 8, ptr %13) #9
  br label %82

82:                                               ; preds = %81, %29
  %83 = load ptr, ptr %8, align 8, !tbaa !39
  invoke void @ures_close_77(ptr noundef %83)
          to label %84 unwind label %50

84:                                               ; preds = %82
  %85 = load ptr, ptr %9, align 8, !tbaa !39
  store ptr %85, ptr %4, align 8
  call void @_ZN6icu_7710CharStringD2Ev(ptr noundef nonnull align 8 dereferenceable(60) %10) #9
  call void @llvm.lifetime.end.p0(i64 64, ptr %10) #9
  call void @llvm.lifetime.end.p0(i64 8, ptr %9) #9
  call void @llvm.lifetime.end.p0(i64 8, ptr %8) #9
  br label %87

86:                                               ; preds = %54, %50
  call void @_ZN6icu_7710CharStringD2Ev(ptr noundef nonnull align 8 dereferenceable(60) %10) #9
  call void @llvm.lifetime.end.p0(i64 64, ptr %10) #9
  call void @llvm.lifetime.end.p0(i64 8, ptr %9) #9
  call void @llvm.lifetime.end.p0(i64 8, ptr %8) #9
  br label %89

87:                                               ; preds = %84, %18
  %88 = load ptr, ptr %4, align 8
  ret ptr %88

89:                                               ; preds = %86
  %90 = load ptr, ptr %11, align 8
  %91 = load i32, ptr %12, align 4
  %92 = insertvalue { ptr, i32 } poison, ptr %90, 0
  %93 = insertvalue { ptr, i32 } %92, i32 %91, 1
  resume { ptr, i32 } %93
}