; Function Attrs: mustprogress uwtable
define internal fastcc noundef ptr @_ZN12_GLOBAL__N_130measurementTypeBundleForLocaleEPKcS1_P10UErrorCode(ptr noundef %0, ptr noundef %1, ptr noundef nonnull %2) unnamed_addr #1 personality ptr @__gxx_personality_v0 {
  %4 = alloca %"class.icu_77::CharString", align 8
  %5 = load i32, ptr %2, align 4, !tbaa !13
  %6 = icmp slt i32 %5, 1
  br i1 %6, label %7, label %37

7:                                                ; preds = %3
  call void @llvm.lifetime.start.p0(i64 64, ptr nonnull %4) #13
  call void @_Z39ulocimp_getRegionForSupplementalData_77PKcbR10UErrorCode(ptr dead_on_unwind nonnull writable sret(%"class.icu_77::CharString") align 8 %4, ptr noundef %0, i1 noundef zeroext true, ptr noundef nonnull align 4 dereferenceable(4) %2)
  %8 = invoke ptr @ures_openDirect_77(ptr noundef null, ptr noundef nonnull @.str.12, ptr noundef nonnull %2)
          to label %9 unwind label %20

9:                                                ; preds = %7
  %10 = invoke ptr @ures_getByKey_77(ptr noundef %8, ptr noundef nonnull @.str.17, ptr noundef %8, ptr noundef nonnull %2)
          to label %11 unwind label %20

11:                                               ; preds = %9
  %.not34 = icmp eq ptr %8, null
  br i1 %.not34, label %34, label %12

12:                                               ; preds = %11
  %13 = load ptr, ptr %4, align 8, !tbaa !3
  %14 = invoke ptr @ures_getByKey_77(ptr noundef nonnull %8, ptr noundef %13, ptr noundef null, ptr noundef nonnull %2)
          to label %15 unwind label %22

15:                                               ; preds = %12
  %16 = load i32, ptr %2, align 4, !tbaa !13
  %17 = icmp sgt i32 %16, 0
  br i1 %17, label %24, label %18

18:                                               ; preds = %15
  %19 = invoke ptr @ures_getByKey_77(ptr noundef %14, ptr noundef %1, ptr noundef null, ptr noundef nonnull %2)
          to label %thread-pre-split unwind label %22

20:                                               ; preds = %34, %9, %7
  %21 = landingpad { ptr, i32 }
          cleanup
  br label %36

22:                                               ; preds = %33, %31, %29, %28, %18, %12
  %23 = landingpad { ptr, i32 }
          cleanup
  br label %36

thread-pre-split:                                 ; preds = %18
  %.pr = load i32, ptr %2, align 4, !tbaa !13
  br label %24

24:                                               ; preds = %thread-pre-split, %15
  %25 = phi i32 [ %.pr, %thread-pre-split ], [ %16, %15 ]
  %.1 = phi ptr [ %19, %thread-pre-split ], [ null, %15 ]
  %26 = icmp eq i32 %25, 2
  br i1 %26, label %27, label %33

27:                                               ; preds = %24
  store i32 0, ptr %2, align 4, !tbaa !13
  %.not36 = icmp eq ptr %14, null
  br i1 %.not36, label %29, label %28

28:                                               ; preds = %27
  invoke void @ures_close_77(ptr noundef nonnull %14)
          to label %29 unwind label %22

29:                                               ; preds = %28, %27
  %30 = invoke ptr @ures_getByKey_77(ptr noundef nonnull %8, ptr noundef nonnull @.str.18, ptr noundef null, ptr noundef nonnull %2)
          to label %31 unwind label %22

31:                                               ; preds = %29
  %32 = invoke ptr @ures_getByKey_77(ptr noundef %30, ptr noundef %1, ptr noundef null, ptr noundef nonnull %2)
          to label %33 unwind label %22

33:                                               ; preds = %31, %24
  %.2 = phi ptr [ %.1, %24 ], [ %32, %31 ]
  %.0 = phi ptr [ %14, %24 ], [ %30, %31 ]
  invoke void @ures_close_77(ptr noundef %.0)
          to label %34 unwind label %22

34:                                               ; preds = %33, %11
  %.030 = phi ptr [ null, %11 ], [ %.2, %33 ]
  invoke void @ures_close_77(ptr noundef %8)
          to label %35 unwind label %20

35:                                               ; preds = %34
  call void @_ZN6icu_7715MaybeStackArrayIcLi40EED1Ev(ptr noundef nonnull align 8 dereferenceable(60) %4) #13
  call void @llvm.lifetime.end.p0(i64 64, ptr nonnull %4) #13
  br label %37

36:                                               ; preds = %22, %20
  %.pn = phi { ptr, i32 } [ %21, %20 ], [ %23, %22 ]
  call void @_ZN6icu_7715MaybeStackArrayIcLi40EED1Ev(ptr noundef nonnull align 8 dereferenceable(60) %4) #13
  call void @llvm.lifetime.end.p0(i64 64, ptr nonnull %4) #13
  resume { ptr, i32 } %.pn

37:                                               ; preds = %3, %35
  %.031 = phi ptr [ %.030, %35 ], [ null, %3 ]
  ret ptr %.031
}